target datalayout = "e-m:e-p270:32:32-p271:32:32-p272:64:64-i64:64-i128:128-f80:128-n8:16:32:64-S128"
target triple = "x86_64-pc-linux-gnu"

%class.ZVirtualMemoryManager = type <{ %class.ZMemoryManager, i64, i8, [7 x i8] }>
%class.ZMemoryManager = type { %class.ZLock, %class.ZList, %"struct.ZMemoryManager::Callbacks" }
%class.ZLock = type { %class.PlatformMutex }
%class.PlatformMutex = type { %union.pthread_mutex_t }
%union.pthread_mutex_t = type { %struct.__pthread_mutex_s }
%struct.__pthread_mutex_s = type { i32, i32, i32, i32, i32, i16, i16, %struct.__pthread_internal_list }
%struct.__pthread_internal_list = type { ptr, ptr }
%class.ZList = type { %class.ZListNode, i64 }
%class.ZListNode = type { ptr, ptr }
%"struct.ZMemoryManager::Callbacks" = type { ptr, ptr, ptr, ptr, ptr, ptr }

@ZAddressOffsetMax = external global i64, align 8
@ZAddressHeapBase = external global i64, align 8

; Function Attrs: mustprogress nounwind uwtable
define linkonce_odr hidden void @_Z15assert_is_valid15zaddress_unsafe(i64 noundef %0) #1 comdat {
  %2 = alloca i64, align 8
  store i64 %0, ptr %2, align 8
  ret void
}

; Function Attrs: mustprogress nounwind uwtable
define linkonce_odr hidden noundef i64 @_Z18to_zaddress_unsafem(i64 noundef %0) #1 comdat {
  %2 = alloca i64, align 8
  %3 = alloca i64, align 8
  store i64 %0, ptr %2, align 8
  %4 = load i64, ptr %2, align 8
  store i64 %4, ptr %3, align 8
  %5 = load i64, ptr %3, align 8
  call void @_Z15assert_is_valid15zaddress_unsafe(i64 noundef %5)
  %6 = load i64, ptr %3, align 8
  ret i64 %6
}

; Function Attrs: mustprogress nounwind uwtable
define linkonce_odr hidden noundef i64 @_Z6untype7zoffset(i64 noundef %0) #1 comdat {
  %2 = alloca i64, align 8
  %3 = alloca i64, align 8
  store i64 %0, ptr %2, align 8
  %4 = load i64, ptr %2, align 8
  store i64 %4, ptr %3, align 8
  %5 = load i64, ptr %3, align 8
  ret i64 %5
}

; Function Attrs: mustprogress nounwind uwtable
define linkonce_odr hidden noundef i64 @_ZN7ZOffset14address_unsafeE7zoffset(i64 noundef %0) #1 comdat align 2 {
  %2 = alloca i64, align 8
  store i64 %0, ptr %2, align 8
  %3 = load i64, ptr %2, align 8
  %4 = call noundef i64 @_Z6untype7zoffset(i64 noundef %3)
  %5 = load i64, ptr @ZAddressHeapBase, align 8
  %6 = or i64 %4, %5
  %7 = call noundef i64 @_Z18to_zaddress_unsafem(i64 noundef %6)
  ret i64 %7
}

; Function Attrs: mustprogress nounwind uwtable
define linkonce_odr hidden noundef i64 @_Z10align_downImmTnNSt9enable_ifIXcvbsr3std11is_integralIT_EE5valueEiE4typeELi0EES1_S1_T0_(i64 noundef %0, i64 noundef %1) #1 comdat {
  %3 = alloca i64, align 8
  %4 = alloca i64, align 8
  %5 = alloca i64, align 8
  store i64 %0, ptr %3, align 8
  store i64 %1, ptr %4, align 8
  %6 = load i64, ptr %3, align 8
  %7 = load i64, ptr %4, align 8
  %8 = call noundef i64 @_ZL14alignment_maskImTnNSt9enable_ifIXcvbsr3std11is_integralIT_EE5valueEiE4typeELi0EES1_S1_(i64 noundef %7)
  %9 = xor i64 %8, -1
  %10 = and i64 %6, %9
  store i64 %10, ptr %5, align 8
  %11 = load i64, ptr %5, align 8
  ret i64 %11
}

; Function Attrs: mustprogress nounwind uwtable
define linkonce_odr hidden noundef i64 @_Z12checked_castImmET_T0_(i64 noundef %0) #1 comdat {
  %2 = alloca i64, align 8
  %3 = alloca i64, align 8
  store i64 %0, ptr %2, align 8
  %4 = load i64, ptr %2, align 8
  store i64 %4, ptr %3, align 8
  %5 = load i64, ptr %3, align 8
  ret i64 %5
}

; Function Attrs: mustprogress nounwind uwtable
define internal noundef i64 @_ZL14alignment_maskImTnNSt9enable_ifIXcvbsr3std11is_integralIT_EE5valueEiE4typeELi0EES1_S1_(i64 noundef %0) #1 {
  %2 = alloca i64, align 8
  store i64 %0, ptr %2, align 8
  %3 = load i64, ptr %2, align 8
  %4 = sub i64 %3, 1
  ret i64 %4
}

; Function Attrs: mustprogress nounwind uwtable
define hidden noundef zeroext i1 @_ZN21ZVirtualMemoryManager18reserve_contiguousE7zoffsetm(ptr noundef nonnull align 8 dereferenceable(121) %0, i64 noundef %1, i64 noundef %2) #1 align 2 {
  %4 = alloca i1, align 1
  %5 = alloca ptr, align 8
  %6 = alloca i64, align 8
  %7 = alloca i64, align 8
  %8 = alloca i64, align 8
  store ptr %0, ptr %5, align 8
  store i64 %1, ptr %6, align 8
  store i64 %2, ptr %7, align 8
  %9 = load ptr, ptr %5, align 8
  %10 = load i64, ptr %6, align 8
  %11 = call noundef i64 @_ZN7ZOffset14address_unsafeE7zoffset(i64 noundef %10)
  store i64 %11, ptr %8, align 8
  %12 = load i64, ptr %8, align 8
  %13 = load i64, ptr %7, align 8
  %14 = call noundef zeroext i1 @_ZN21ZVirtualMemoryManager10pd_reserveE15zaddress_unsafem(ptr noundef nonnull align 8 dereferenceable(121) %9, i64 noundef %12, i64 noundef %13)
  br i1 %14, label %16, label %15

15:                                               ; preds = %3
  store i1 false, ptr %4, align 1
  br label %22

16:                                               ; preds = %3
  %17 = load i64, ptr %8, align 8
  %18 = load i64, ptr %7, align 8
  call void @_ZN4ZNMT7reserveE15zaddress_unsafem(i64 noundef %17, i64 noundef %18)
  %19 = getelementptr inbounds %class.ZVirtualMemoryManager, ptr %9, i32 0, i32 0
  %20 = load i64, ptr %6, align 8
  %21 = load i64, ptr %7, align 8
  call void @_ZN14ZMemoryManager4freeE7zoffsetm(ptr noundef nonnull align 8 dereferenceable(112) %19, i64 noundef %20, i64 noundef %21)
  store i1 true, ptr %4, align 1
  br label %22

22:                                               ; preds = %16, %15
  %23 = load i1, ptr %4, align 1
  ret i1 %23
}

; Function Attrs: mustprogress nounwind uwtable
define linkonce_odr hidden noundef i64 @_Z10to_zoffsetm(i64 noundef %0) #1 comdat {
  %2 = alloca i64, align 8
  store i64 %0, ptr %2, align 8
  %3 = load i64, ptr %2, align 8
  ret i64 %3
}

; Function Attrs: mustprogress nounwind uwtable
define linkonce_odr hidden noundef i64 @_Z4MAX2ImET_S0_S0_(i64 noundef %0, i64 noundef %1) #1 comdat {
  %3 = alloca i64, align 8
  %4 = alloca i64, align 8
  store i64 %0, ptr %3, align 8
  store i64 %1, ptr %4, align 8
  %5 = load i64, ptr %3, align 8
  %6 = load i64, ptr %4, align 8
  %7 = icmp ugt i64 %5, %6
  br i1 %7, label %8, label %10

8:                                                ; preds = %2
  %9 = load i64, ptr %3, align 8
  br label %12

10:                                               ; preds = %2
  %11 = load i64, ptr %4, align 8
  br label %12

12:                                               ; preds = %10, %8
  %13 = phi i64 [ %9, %8 ], [ %11, %10 ]
  ret i64 %13
}

; Function Attrs: mustprogress nounwind uwtable
define linkonce_odr hidden noundef i64 @_Z8align_upImmTnNSt9enable_ifIXcvbsr3std11is_integralIT_EE5valueEiE4typeELi0EES1_S1_T0_(i64 noundef %0, i64 noundef %1) #1 comdat {
  %3 = alloca i64, align 8
  %4 = alloca i64, align 8
  %5 = alloca i64, align 8
  store i64 %0, ptr %3, align 8
  store i64 %1, ptr %4, align 8
  %6 = load i64, ptr %3, align 8
  %7 = load i64, ptr %4, align 8
  %8 = call noundef i64 @_ZL14alignment_maskImTnNSt9enable_ifIXcvbsr3std11is_integralIT_EE5valueEiE4typeELi0EES1_S1_(i64 noundef %7)
  %9 = add i64 %6, %8
  %10 = call noundef i64 @_Z12checked_castImmET_T0_(i64 noundef %9)
  store i64 %10, ptr %5, align 8
  %11 = load i64, ptr %5, align 8
  %12 = load i64, ptr %4, align 8
  %13 = call noundef i64 @_Z10align_downImmTnNSt9enable_ifIXcvbsr3std11is_integralIT_EE5valueEiE4typeELi0EES1_S1_T0_(i64 noundef %11, i64 noundef %12)
  ret i64 %13
}

; Function Attrs: mustprogress nounwind uwtable
define hidden noundef zeroext i1 @_ZN21ZVirtualMemoryManager18reserve_contiguousEm(ptr noundef nonnull align 8 dereferenceable(121) %0, i64 noundef %1) #1 align 2 {
  %3 = alloca i1, align 1
  %4 = alloca ptr, align 8
  %5 = alloca i64, align 8
  %6 = alloca i64, align 8
  %7 = alloca i64, align 8
  %8 = alloca i64, align 8
  store ptr %0, ptr %4, align 8
  store i64 %1, ptr %5, align 8
  %9 = load ptr, ptr %4, align 8
  %10 = load i64, ptr @ZAddressOffsetMax, align 8
  %11 = load i64, ptr %5, align 8
  %12 = sub i64 %10, %11
  store i64 %12, ptr %6, align 8
  %13 = load i64, ptr %6, align 8
  %14 = udiv i64 %13, 8192
  %15 = call noundef i64 @_Z8align_upImmTnNSt9enable_ifIXcvbsr3std11is_integralIT_EE5valueEiE4typeELi0EES1_S1_T0_(i64 noundef %14, i64 noundef 2097152)
  %16 = call noundef i64 @_Z4MAX2ImET_S0_S0_(i64 noundef %15, i64 noundef 2097152)
  store i64 %16, ptr %7, align 8
  store i64 0, ptr %8, align 8
  br label %17

17:                                               ; preds = %30, %2
  %18 = load i64, ptr %8, align 8
  %19 = load i64, ptr %5, align 8
  %20 = add i64 %18, %19
  %21 = load i64, ptr @ZAddressOffsetMax, align 8
  %22 = icmp ule i64 %20, %21
  br i1 %22, label %23, label %34

23:                                               ; preds = %17
  %24 = load i64, ptr %8, align 8
  %25 = call noundef i64 @_Z10to_zoffsetm(i64 noundef %24)
  %26 = load i64, ptr %5, align 8
  %27 = call noundef zeroext i1 @_ZN21ZVirtualMemoryManager18reserve_contiguousE7zoffsetm(ptr noundef nonnull align 8 dereferenceable(121) %9, i64 noundef %25, i64 noundef %26)
  br i1 %27, label %28, label %29

28:                                               ; preds = %23
  store i1 true, ptr %3, align 1
  br label %35

29:                                               ; preds = %23
  br label %30

30:                                               ; preds = %29
  %31 = load i64, ptr %7, align 8
  %32 = load i64, ptr %8, align 8
  %33 = add i64 %32, %31
  store i64 %33, ptr %8, align 8
  br label %17, !llvm.loop !8

34:                                               ; preds = %17
  store i1 false, ptr %3, align 1
  br label %35

35:                                               ; preds = %34, %28
  %36 = load i1, ptr %3, align 1
  ret i1 %36
}