; Function Attrs: mustprogress nounwind uwtable
define hidden noundef zeroext i1 @_ZN21ZVirtualMemoryManager18reserve_contiguousEm(ptr noundef nonnull align 8 dereferenceable(121) %0, i64 noundef %1) local_unnamed_addr #0 align 2 {
  %3 = load i64, ptr @ZAddressOffsetMax, align 8
  %4 = sub i64 %3, %1
  %5 = lshr i64 %4, 13
  %6 = add nuw nsw i64 %5, 2097151
  %7 = and i64 %6, 4503599625273344
  %8 = tail call noundef i64 @llvm.umax.i64(i64 %7, i64 2097152)
  %.not13.not = icmp ult i64 %3, %1
  br i1 %.not13.not, label %.loopexit, label %.lr.ph

.lr.ph:                                           ; preds = %2, %_ZN21ZVirtualMemoryManager18reserve_contiguousE7zoffsetm.exit
  %.014 = phi i64 [ %12, %_ZN21ZVirtualMemoryManager18reserve_contiguousE7zoffsetm.exit ], [ 0, %2 ]
  %9 = load i64, ptr @ZAddressHeapBase, align 8
  %10 = or i64 %9, %.014
  %11 = tail call noundef zeroext i1 @_ZN21ZVirtualMemoryManager10pd_reserveE15zaddress_unsafem(ptr noundef nonnull align 8 dereferenceable(121) %0, i64 noundef %10, i64 noundef %1) #7
  br i1 %11, label %_ZN21ZVirtualMemoryManager18reserve_contiguousE7zoffsetm.exit.thread, label %_ZN21ZVirtualMemoryManager18reserve_contiguousE7zoffsetm.exit

_ZN21ZVirtualMemoryManager18reserve_contiguousE7zoffsetm.exit.thread: ; preds = %.lr.ph
  tail call void @_ZN4ZNMT7reserveE15zaddress_unsafem(i64 noundef %10, i64 noundef %1) #7
  tail call void @_ZN14ZMemoryManager4freeE7zoffsetm(ptr noundef nonnull align 8 dereferenceable(112) %0, i64 noundef %.014, i64 noundef %1) #7
  br label %.loopexit

_ZN21ZVirtualMemoryManager18reserve_contiguousE7zoffsetm.exit: ; preds = %.lr.ph
  %12 = add i64 %.014, %8
  %13 = add i64 %12, %1
  %14 = load i64, ptr @ZAddressOffsetMax, align 8
  %.not.not = icmp ugt i64 %13, %14
  br i1 %.not.not, label %.loopexit, label %.lr.ph, !llvm.loop !6

.loopexit:                                        ; preds = %_ZN21ZVirtualMemoryManager18reserve_contiguousE7zoffsetm.exit, %2, %_ZN21ZVirtualMemoryManager18reserve_contiguousE7zoffsetm.exit.thread
  %.not11 = phi i1 [ true, %_ZN21ZVirtualMemoryManager18reserve_contiguousE7zoffsetm.exit.thread ], [ false, %2 ], [ false, %_ZN21ZVirtualMemoryManager18reserve_contiguousE7zoffsetm.exit ]
  ret i1 %.not11
}